target datalayout = "e-m:e-p270:32:32-p271:32:32-p272:64:64-i64:64-i128:128-f80:128-n8:16:32:64-S128"
target triple = "x86_64-pc-linux-gnu"

%struct.code = type { i8, i8, i16 }
%struct.z_stream64_s = type { ptr, i64, i32, i32, ptr, i64, ptr, i64, i32 }
%struct.inflate_state = type { i32, i32, i32, i32, i32, i32, i64, i64, i32, i32, i32, i32, ptr, i64, i32, i32, i32, i32, ptr, ptr, i32, i32, i32, i32, i32, i32, ptr, [320 x i16], [288 x i16], [2048 x %struct.code] }

; Function Attrs: nounwind uwtable
define i32 @inflate64Init2(ptr noundef %0, i32 noundef %1) #0 {
  %3 = alloca i32, align 4
  %4 = alloca ptr, align 8
  %5 = alloca i32, align 4
  %6 = alloca ptr, align 8
  store ptr %0, ptr %4, align 8
  store i32 %1, ptr %5, align 4
  %7 = load ptr, ptr %4, align 8
  %8 = icmp eq ptr %7, null
  br i1 %8, label %9, label %10

9:                                                ; preds = %2
  store i32 -2, ptr %3, align 4
  br label %83

10:                                               ; preds = %2
  %11 = call noalias ptr @calloc(i64 noundef 1, i64 noundef 9544) #5
  store ptr %11, ptr %6, align 8
  %12 = load ptr, ptr %6, align 8
  %13 = icmp eq ptr %12, null
  br i1 %13, label %14, label %15

14:                                               ; preds = %10
  store i32 -4, ptr %3, align 4
  br label %83

15:                                               ; preds = %10
  %16 = load ptr, ptr %6, align 8
  %17 = load ptr, ptr %4, align 8
  %18 = getelementptr inbounds %struct.z_stream64_s, ptr %17, i32 0, i32 6
  store ptr %16, ptr %18, align 8
  %19 = load i32, ptr %5, align 4
  %20 = icmp slt i32 %19, 0
  br i1 %20, label %21, label %26

21:                                               ; preds = %15
  %22 = load ptr, ptr %6, align 8
  %23 = getelementptr inbounds %struct.inflate_state, ptr %22, i32 0, i32 2
  store i32 0, ptr %23, align 8
  %24 = load i32, ptr %5, align 4
  %25 = sub nsw i32 0, %24
  store i32 %25, ptr %5, align 4
  br label %32

26:                                               ; preds = %15
  %27 = load i32, ptr %5, align 4
  %28 = ashr i32 %27, 4
  %29 = add nsw i32 %28, 1
  %30 = load ptr, ptr %6, align 8
  %31 = getelementptr inbounds %struct.inflate_state, ptr %30, i32 0, i32 2
  store i32 %29, ptr %31, align 8
  br label %32

32:                                               ; preds = %26, %21
  %33 = load i32, ptr %5, align 4
  %34 = icmp slt i32 %33, 8
  br i1 %34, label %38, label %35

35:                                               ; preds = %32
  %36 = load i32, ptr %5, align 4
  %37 = icmp sgt i32 %36, 16
  br i1 %37, label %38, label %42

38:                                               ; preds = %35, %32
  %39 = load ptr, ptr %6, align 8
  call void @free(ptr noundef %39) #6
  %40 = load ptr, ptr %4, align 8
  %41 = getelementptr inbounds %struct.z_stream64_s, ptr %40, i32 0, i32 6
  store ptr null, ptr %41, align 8
  store i32 -2, ptr %3, align 4
  br label %83

42:                                               ; preds = %35
  %43 = load i32, ptr %5, align 4
  %44 = load ptr, ptr %6, align 8
  %45 = getelementptr inbounds %struct.inflate_state, ptr %44, i32 0, i32 8
  store i32 %43, ptr %45, align 8
  %46 = load ptr, ptr %6, align 8
  %47 = getelementptr inbounds %struct.inflate_state, ptr %46, i32 0, i32 12
  store ptr null, ptr %47, align 8
  %48 = load ptr, ptr %6, align 8
  %49 = getelementptr inbounds %struct.inflate_state, ptr %48, i32 0, i32 7
  store i64 0, ptr %49, align 8
  %50 = load ptr, ptr %4, align 8
  %51 = getelementptr inbounds %struct.z_stream64_s, ptr %50, i32 0, i32 5
  store i64 0, ptr %51, align 8
  %52 = load ptr, ptr %4, align 8
  %53 = getelementptr inbounds %struct.z_stream64_s, ptr %52, i32 0, i32 1
  store i64 0, ptr %53, align 8
  %54 = load ptr, ptr %4, align 8
  %55 = getelementptr inbounds %struct.z_stream64_s, ptr %54, i32 0, i32 7
  store i64 1, ptr %55, align 8
  %56 = load ptr, ptr %6, align 8
  %57 = getelementptr inbounds %struct.inflate_state, ptr %56, i32 0, i32 0
  store i32 0, ptr %57, align 8
  %58 = load ptr, ptr %6, align 8
  %59 = getelementptr inbounds %struct.inflate_state, ptr %58, i32 0, i32 1
  store i32 0, ptr %59, align 4
  %60 = load ptr, ptr %6, align 8
  %61 = getelementptr inbounds %struct.inflate_state, ptr %60, i32 0, i32 3
  store i32 0, ptr %61, align 4
  %62 = load ptr, ptr %6, align 8
  %63 = getelementptr inbounds %struct.inflate_state, ptr %62, i32 0, i32 5
  store i32 32768, ptr %63, align 4
  %64 = load ptr, ptr %6, align 8
  %65 = getelementptr inbounds %struct.inflate_state, ptr %64, i32 0, i32 9
  store i32 0, ptr %65, align 4
  %66 = load ptr, ptr %6, align 8
  %67 = getelementptr inbounds %struct.inflate_state, ptr %66, i32 0, i32 10
  store i32 0, ptr %67, align 8
  %68 = load ptr, ptr %6, align 8
  %69 = getelementptr inbounds %struct.inflate_state, ptr %68, i32 0, i32 11
  store i32 0, ptr %69, align 4
  %70 = load ptr, ptr %6, align 8
  %71 = getelementptr inbounds %struct.inflate_state, ptr %70, i32 0, i32 13
  store i64 0, ptr %71, align 8
  %72 = load ptr, ptr %6, align 8
  %73 = getelementptr inbounds %struct.inflate_state, ptr %72, i32 0, i32 14
  store i32 0, ptr %73, align 8
  %74 = load ptr, ptr %6, align 8
  %75 = getelementptr inbounds %struct.inflate_state, ptr %74, i32 0, i32 29
  %76 = getelementptr inbounds [2048 x %struct.code], ptr %75, i64 0, i64 0
  %77 = load ptr, ptr %6, align 8
  %78 = getelementptr inbounds %struct.inflate_state, ptr %77, i32 0, i32 26
  store ptr %76, ptr %78, align 8
  %79 = load ptr, ptr %6, align 8
  %80 = getelementptr inbounds %struct.inflate_state, ptr %79, i32 0, i32 19
  store ptr %76, ptr %80, align 8
  %81 = load ptr, ptr %6, align 8
  %82 = getelementptr inbounds %struct.inflate_state, ptr %81, i32 0, i32 18
  store ptr %76, ptr %82, align 8
  store i32 0, ptr %3, align 4
  br label %83

83:                                               ; preds = %42, %38, %14, %9
  %84 = load i32, ptr %3, align 4
  ret i32 %84
}