; Function Attrs: mustprogress nounwind willreturn memory(readwrite, argmem: write) uwtable
define noundef i32 @inflate64Init2(ptr noundef writeonly %0, i32 noundef %1) local_unnamed_addr #0 {
  %3 = icmp eq ptr %0, null
  br i1 %3, label %25, label %4

4:                                                ; preds = %2
  %5 = tail call noalias dereferenceable_or_null(9544) ptr @calloc(i64 noundef 1, i64 noundef 9544) #10
  %6 = icmp eq ptr %5, null
  br i1 %6, label %25, label %7

7:                                                ; preds = %4
  %8 = getelementptr inbounds i8, ptr %0, i64 40
  store ptr %5, ptr %8, align 8
  %9 = icmp slt i32 %1, 0
  %10 = lshr i32 %1, 4
  %11 = add nuw nsw i32 %10, 1
  %.sink = select i1 %9, i32 0, i32 %11
  %.034 = tail call i32 @llvm.abs.i32(i32 %1, i1 true)
  %12 = getelementptr inbounds i8, ptr %5, i64 8
  store i32 %.sink, ptr %12, align 8
  %13 = add nsw i32 %.034, -17
  %or.cond = icmp ult i32 %13, -9
  br i1 %or.cond, label %14, label %15

14:                                               ; preds = %7
  tail call void @free(ptr noundef nonnull %5) #11
  store ptr null, ptr %8, align 8
  br label %25

15:                                               ; preds = %7
  %16 = getelementptr inbounds i8, ptr %5, i64 40
  store i32 %.034, ptr %16, align 8
  %17 = getelementptr inbounds i8, ptr %0, i64 32
  store i64 0, ptr %17, align 8
  %18 = getelementptr inbounds i8, ptr %0, i64 8
  store i64 0, ptr %18, align 8
  %19 = getelementptr inbounds i8, ptr %0, i64 48
  store i64 1, ptr %19, align 8
  %20 = getelementptr inbounds i8, ptr %5, i64 20
  store i32 32768, ptr %20, align 4
  %21 = getelementptr inbounds i8, ptr %5, i64 1352
  %22 = getelementptr inbounds i8, ptr %5, i64 128
  store ptr %21, ptr %22, align 8
  %23 = getelementptr inbounds i8, ptr %5, i64 96
  store ptr %21, ptr %23, align 8
  %24 = getelementptr inbounds i8, ptr %5, i64 88
  store ptr %21, ptr %24, align 8
  br label %25

25:                                               ; preds = %4, %2, %15, %14
  %.0 = phi i32 [ -2, %14 ], [ 0, %15 ], [ -2, %2 ], [ -4, %4 ]
  ret i32 %.0
}